; Function Attrs: mustprogress uwtable
define void @_ZN6duckdb19BatchedBufferedData19UpdateMinBatchIndexEm(ptr noundef nonnull align 8 dereferenceable(304) %0, i64 noundef %1) local_unnamed_addr #0 align 2 personality ptr @__gxx_personality_v0 {
  %3 = getelementptr inbounds nuw i8, ptr %0, i64 40
  %4 = tail call noundef i32 @pthread_mutex_lock(ptr noundef nonnull align 8 dereferenceable(40) %3) #24
  %.not.i.i = icmp eq i32 %4, 0
  br i1 %.not.i.i, label %_ZNSt10lock_guardISt5mutexEC2ERS0_.exit, label %5

5:                                                ; preds = %2
  tail call void @_ZSt20__throw_system_errori(i32 noundef %4) #25
  unreachable

_ZNSt10lock_guardISt5mutexEC2ERS0_.exit:          ; preds = %2
  %6 = getelementptr inbounds nuw i8, ptr %0, i64 288
  %7 = load i64, ptr %6, align 8, !tbaa !144
  %.not = icmp ult i64 %7, %1
  br i1 %.not, label %11, label %12

8:                                                ; preds = %11
  %9 = landingpad { ptr, i32 }
          cleanup
  %10 = tail call noundef i32 @pthread_mutex_unlock(ptr noundef nonnull align 8 dereferenceable(40) %3) #24
  resume { ptr, i32 } %9

11:                                               ; preds = %_ZNSt10lock_guardISt5mutexEC2ERS0_.exit
  store i64 %1, ptr %6, align 8, !tbaa !144
  invoke void @_ZN6duckdb19BatchedBufferedData20MoveCompletedBatchesERSt10lock_guardISt5mutexE(ptr noundef nonnull align 8 dereferenceable(304) %0, ptr nonnull align 8 poison)
          to label %12 unwind label %8

12:                                               ; preds = %11, %_ZNSt10lock_guardISt5mutexEC2ERS0_.exit
  %13 = tail call noundef i32 @pthread_mutex_unlock(ptr noundef nonnull align 8 dereferenceable(40) %3) #24
  ret void
}